; Function Attrs: mustprogress nounwind uwtable
define void @_ZN8WasmEdge4LLVM10JITLibraryD2Ev(ptr nocapture noundef nonnull align 8 dereferenceable(32) %0) unnamed_addr #0 align 2 {
  store ptr getelementptr inbounds inrange(-16, 40) (i8, ptr @_ZTVN8WasmEdge4LLVM10JITLibraryE, i64 16), ptr %0, align 8
  %2 = getelementptr inbounds i8, ptr %0, i64 24
  %3 = load ptr, ptr %2, align 8
  store ptr null, ptr %2, align 8
  %.not.i = icmp eq ptr %3, null
  br i1 %.not.i, label %_ZNSt10unique_ptrIN8WasmEdge4LLVM8OrcLLJITESt14default_deleteIS2_EED2Ev.exit, label %_ZNKSt14default_deleteIN8WasmEdge4LLVM8OrcLLJITEEclEPS2_.exit.i

_ZNKSt14default_deleteIN8WasmEdge4LLVM8OrcLLJITEEclEPS2_.exit.i: ; preds = %1
  %4 = load ptr, ptr %3, align 8
  %5 = tail call ptr @LLVMOrcDisposeLLJIT(ptr noundef %4) #16
  tail call void @_ZdlPvm(ptr noundef nonnull %3, i64 noundef 8) #17
  br label %_ZNSt10unique_ptrIN8WasmEdge4LLVM8OrcLLJITESt14default_deleteIS2_EED2Ev.exit

_ZNSt10unique_ptrIN8WasmEdge4LLVM8OrcLLJITESt14default_deleteIS2_EED2Ev.exit: ; preds = %1, %_ZNKSt14default_deleteIN8WasmEdge4LLVM8OrcLLJITEEclEPS2_.exit.i
  %6 = getelementptr inbounds i8, ptr %0, i64 16
  %7 = load ptr, ptr %6, align 8
  %.not.i.i.i.i.i = icmp eq ptr %7, null
  br i1 %.not.i.i.i.i.i, label %_ZN8WasmEdge10ExecutableD2Ev.exit, label %8

8:                                                ; preds = %_ZNSt10unique_ptrIN8WasmEdge4LLVM8OrcLLJITESt14default_deleteIS2_EED2Ev.exit
  %9 = getelementptr inbounds i8, ptr %7, i64 12
  %10 = load i8, ptr @__libc_single_threaded, align 1
  %.not.i.i.i.i.i.i = icmp eq i8 %10, 0
  br i1 %.not.i.i.i.i.i.i, label %14, label %11

11:                                               ; preds = %8
  %12 = load i32, ptr %9, align 4
  %13 = add nsw i32 %12, -1
  store i32 %13, ptr %9, align 4
  br label %16

14:                                               ; preds = %8
  %15 = atomicrmw volatile add ptr %9, i32 -1 acq_rel, align 4
  br label %16

16:                                               ; preds = %14, %11
  %.0.i.i.i.i.i.i = phi i32 [ %12, %11 ], [ %15, %14 ]
  %17 = icmp eq i32 %.0.i.i.i.i.i.i, 1
  br i1 %17, label %18, label %_ZN8WasmEdge10ExecutableD2Ev.exit

18:                                               ; preds = %16
  %19 = load ptr, ptr %7, align 8
  %20 = getelementptr inbounds i8, ptr %19, i64 24
  %21 = load ptr, ptr %20, align 8
  tail call void %21(ptr noundef nonnull align 8 dereferenceable(16) %7) #16
  br label %_ZN8WasmEdge10ExecutableD2Ev.exit

_ZN8WasmEdge10ExecutableD2Ev.exit:                ; preds = %_ZNSt10unique_ptrIN8WasmEdge4LLVM8OrcLLJITESt14default_deleteIS2_EED2Ev.exit, %16, %18
  ret void
}